; Function Attrs: mustprogress uwtable
define hidden void @_ZN4cvc58internal6theory2fp8TheoryFp10finishInitEv(ptr nocapture noundef nonnull readonly align 8 dereferenceable(10432) %this) unnamed_addr #3 align 2 {
entry:
  %d_equalityEngine = getelementptr inbounds i8, ptr %this, i64 160
  %0 = load ptr, ptr %d_equalityEngine, align 8
  tail call void @_ZN4cvc58internal6theory2eq14EqualityEngine15addFunctionKindENS0_4kind6Kind_tEbb(ptr noundef nonnull align 8 dereferenceable(1784) %0, i32 noundef 155, i1 noundef zeroext false, i1 noundef zeroext false)
  %1 = load ptr, ptr %d_equalityEngine, align 8
  tail call void @_ZN4cvc58internal6theory2eq14EqualityEngine15addFunctionKindENS0_4kind6Kind_tEbb(ptr noundef nonnull align 8 dereferenceable(1784) %1, i32 noundef 156, i1 noundef zeroext false, i1 noundef zeroext false)
  %2 = load ptr, ptr %d_equalityEngine, align 8
  tail call void @_ZN4cvc58internal6theory2eq14EqualityEngine15addFunctionKindENS0_4kind6Kind_tEbb(ptr noundef nonnull align 8 dereferenceable(1784) %2, i32 noundef 157, i1 noundef zeroext false, i1 noundef zeroext false)
  %3 = load ptr, ptr %d_equalityEngine, align 8
  tail call void @_ZN4cvc58internal6theory2eq14EqualityEngine15addFunctionKindENS0_4kind6Kind_tEbb(ptr noundef nonnull align 8 dereferenceable(1784) %3, i32 noundef 159, i1 noundef zeroext false, i1 noundef zeroext false)
  %4 = load ptr, ptr %d_equalityEngine, align 8
  tail call void @_ZN4cvc58internal6theory2eq14EqualityEngine15addFunctionKindENS0_4kind6Kind_tEbb(ptr noundef nonnull align 8 dereferenceable(1784) %4, i32 noundef 160, i1 noundef zeroext false, i1 noundef zeroext false)
  %5 = load ptr, ptr %d_equalityEngine, align 8
  tail call void @_ZN4cvc58internal6theory2eq14EqualityEngine15addFunctionKindENS0_4kind6Kind_tEbb(ptr noundef nonnull align 8 dereferenceable(1784) %5, i32 noundef 161, i1 noundef zeroext false, i1 noundef zeroext false)
  %6 = load ptr, ptr %d_equalityEngine, align 8
  tail call void @_ZN4cvc58internal6theory2eq14EqualityEngine15addFunctionKindENS0_4kind6Kind_tEbb(ptr noundef nonnull align 8 dereferenceable(1784) %6, i32 noundef 162, i1 noundef zeroext false, i1 noundef zeroext false)
  %7 = load ptr, ptr %d_equalityEngine, align 8
  tail call void @_ZN4cvc58internal6theory2eq14EqualityEngine15addFunctionKindENS0_4kind6Kind_tEbb(ptr noundef nonnull align 8 dereferenceable(1784) %7, i32 noundef 163, i1 noundef zeroext false, i1 noundef zeroext false)
  %8 = load ptr, ptr %d_equalityEngine, align 8
  tail call void @_ZN4cvc58internal6theory2eq14EqualityEngine15addFunctionKindENS0_4kind6Kind_tEbb(ptr noundef nonnull align 8 dereferenceable(1784) %8, i32 noundef 164, i1 noundef zeroext false, i1 noundef zeroext false)
  %9 = load ptr, ptr %d_equalityEngine, align 8
  tail call void @_ZN4cvc58internal6theory2eq14EqualityEngine15addFunctionKindENS0_4kind6Kind_tEbb(ptr noundef nonnull align 8 dereferenceable(1784) %9, i32 noundef 167, i1 noundef zeroext false, i1 noundef zeroext false)
  %10 = load ptr, ptr %d_equalityEngine, align 8
  tail call void @_ZN4cvc58internal6theory2eq14EqualityEngine15addFunctionKindENS0_4kind6Kind_tEbb(ptr noundef nonnull align 8 dereferenceable(1784) %10, i32 noundef 168, i1 noundef zeroext false, i1 noundef zeroext false)
  %11 = load ptr, ptr %d_equalityEngine, align 8
  tail call void @_ZN4cvc58internal6theory2eq14EqualityEngine15addFunctionKindENS0_4kind6Kind_tEbb(ptr noundef nonnull align 8 dereferenceable(1784) %11, i32 noundef 169, i1 noundef zeroext false, i1 noundef zeroext false)
  %12 = load ptr, ptr %d_equalityEngine, align 8
  tail call void @_ZN4cvc58internal6theory2eq14EqualityEngine15addFunctionKindENS0_4kind6Kind_tEbb(ptr noundef nonnull align 8 dereferenceable(1784) %12, i32 noundef 170, i1 noundef zeroext false, i1 noundef zeroext false)
  %13 = load ptr, ptr %d_equalityEngine, align 8
  tail call void @_ZN4cvc58internal6theory2eq14EqualityEngine15addFunctionKindENS0_4kind6Kind_tEbb(ptr noundef nonnull align 8 dereferenceable(1784) %13, i32 noundef 173, i1 noundef zeroext false, i1 noundef zeroext false)
  %14 = load ptr, ptr %d_equalityEngine, align 8
  tail call void @_ZN4cvc58internal6theory2eq14EqualityEngine15addFunctionKindENS0_4kind6Kind_tEbb(ptr noundef nonnull align 8 dereferenceable(1784) %14, i32 noundef 174, i1 noundef zeroext false, i1 noundef zeroext false)
  %15 = load ptr, ptr %d_equalityEngine, align 8
  tail call void @_ZN4cvc58internal6theory2eq14EqualityEngine15addFunctionKindENS0_4kind6Kind_tEbb(ptr noundef nonnull align 8 dereferenceable(1784) %15, i32 noundef 175, i1 noundef zeroext false, i1 noundef zeroext false)
  %16 = load ptr, ptr %d_equalityEngine, align 8
  tail call void @_ZN4cvc58internal6theory2eq14EqualityEngine15addFunctionKindENS0_4kind6Kind_tEbb(ptr noundef nonnull align 8 dereferenceable(1784) %16, i32 noundef 176, i1 noundef zeroext false, i1 noundef zeroext false)
  %17 = load ptr, ptr %d_equalityEngine, align 8
  tail call void @_ZN4cvc58internal6theory2eq14EqualityEngine15addFunctionKindENS0_4kind6Kind_tEbb(ptr noundef nonnull align 8 dereferenceable(1784) %17, i32 noundef 177, i1 noundef zeroext false, i1 noundef zeroext false)
  %18 = load ptr, ptr %d_equalityEngine, align 8
  tail call void @_ZN4cvc58internal6theory2eq14EqualityEngine15addFunctionKindENS0_4kind6Kind_tEbb(ptr noundef nonnull align 8 dereferenceable(1784) %18, i32 noundef 178, i1 noundef zeroext false, i1 noundef zeroext false)
  %19 = load ptr, ptr %d_equalityEngine, align 8
  tail call void @_ZN4cvc58internal6theory2eq14EqualityEngine15addFunctionKindENS0_4kind6Kind_tEbb(ptr noundef nonnull align 8 dereferenceable(1784) %19, i32 noundef 179, i1 noundef zeroext false, i1 noundef zeroext false)
  %20 = load ptr, ptr %d_equalityEngine, align 8
  tail call void @_ZN4cvc58internal6theory2eq14EqualityEngine15addFunctionKindENS0_4kind6Kind_tEbb(ptr noundef nonnull align 8 dereferenceable(1784) %20, i32 noundef 181, i1 noundef zeroext false, i1 noundef zeroext false)
  %21 = load ptr, ptr %d_equalityEngine, align 8
  tail call void @_ZN4cvc58internal6theory2eq14EqualityEngine15addFunctionKindENS0_4kind6Kind_tEbb(ptr noundef nonnull align 8 dereferenceable(1784) %21, i32 noundef 183, i1 noundef zeroext false, i1 noundef zeroext false)
  %22 = load ptr, ptr %d_equalityEngine, align 8
  tail call void @_ZN4cvc58internal6theory2eq14EqualityEngine15addFunctionKindENS0_4kind6Kind_tEbb(ptr noundef nonnull align 8 dereferenceable(1784) %22, i32 noundef 185, i1 noundef zeroext false, i1 noundef zeroext false)
  %23 = load ptr, ptr %d_equalityEngine, align 8
  tail call void @_ZN4cvc58internal6theory2eq14EqualityEngine15addFunctionKindENS0_4kind6Kind_tEbb(ptr noundef nonnull align 8 dereferenceable(1784) %23, i32 noundef 187, i1 noundef zeroext false, i1 noundef zeroext false)
  %24 = load ptr, ptr %d_equalityEngine, align 8
  tail call void @_ZN4cvc58internal6theory2eq14EqualityEngine15addFunctionKindENS0_4kind6Kind_tEbb(ptr noundef nonnull align 8 dereferenceable(1784) %24, i32 noundef 189, i1 noundef zeroext false, i1 noundef zeroext false)
  %25 = load ptr, ptr %d_equalityEngine, align 8
  tail call void @_ZN4cvc58internal6theory2eq14EqualityEngine15addFunctionKindENS0_4kind6Kind_tEbb(ptr noundef nonnull align 8 dereferenceable(1784) %25, i32 noundef 193, i1 noundef zeroext false, i1 noundef zeroext false)
  %26 = load ptr, ptr %d_equalityEngine, align 8
  tail call void @_ZN4cvc58internal6theory2eq14EqualityEngine15addFunctionKindENS0_4kind6Kind_tEbb(ptr noundef nonnull align 8 dereferenceable(1784) %26, i32 noundef 197, i1 noundef zeroext false, i1 noundef zeroext false)
  %27 = load ptr, ptr %d_equalityEngine, align 8
  tail call void @_ZN4cvc58internal6theory2eq14EqualityEngine15addFunctionKindENS0_4kind6Kind_tEbb(ptr noundef nonnull align 8 dereferenceable(1784) %27, i32 noundef 199, i1 noundef zeroext false, i1 noundef zeroext false)
  %28 = load ptr, ptr %d_equalityEngine, align 8
  tail call void @_ZN4cvc58internal6theory2eq14EqualityEngine15addFunctionKindENS0_4kind6Kind_tEbb(ptr noundef nonnull align 8 dereferenceable(1784) %28, i32 noundef 200, i1 noundef zeroext false, i1 noundef zeroext false)
  %29 = load ptr, ptr %d_equalityEngine, align 8
  tail call void @_ZN4cvc58internal6theory2eq14EqualityEngine15addFunctionKindENS0_4kind6Kind_tEbb(ptr noundef nonnull align 8 dereferenceable(1784) %29, i32 noundef 201, i1 noundef zeroext false, i1 noundef zeroext false)
  %30 = load ptr, ptr %d_equalityEngine, align 8
  tail call void @_ZN4cvc58internal6theory2eq14EqualityEngine15addFunctionKindENS0_4kind6Kind_tEbb(ptr noundef nonnull align 8 dereferenceable(1784) %30, i32 noundef 202, i1 noundef zeroext false, i1 noundef zeroext false)
  %31 = load ptr, ptr %d_equalityEngine, align 8
  tail call void @_ZN4cvc58internal6theory2eq14EqualityEngine15addFunctionKindENS0_4kind6Kind_tEbb(ptr noundef nonnull align 8 dereferenceable(1784) %31, i32 noundef 203, i1 noundef zeroext false, i1 noundef zeroext false)
  %32 = load ptr, ptr %d_equalityEngine, align 8
  tail call void @_ZN4cvc58internal6theory2eq14EqualityEngine15addFunctionKindENS0_4kind6Kind_tEbb(ptr noundef nonnull align 8 dereferenceable(1784) %32, i32 noundef 204, i1 noundef zeroext false, i1 noundef zeroext false)
  %33 = load ptr, ptr %d_equalityEngine, align 8
  tail call void @_ZN4cvc58internal6theory2eq14EqualityEngine15addFunctionKindENS0_4kind6Kind_tEbb(ptr noundef nonnull align 8 dereferenceable(1784) %33, i32 noundef 205, i1 noundef zeroext false, i1 noundef zeroext false)
  %34 = load ptr, ptr %d_equalityEngine, align 8
  tail call void @_ZN4cvc58internal6theory2eq14EqualityEngine15addFunctionKindENS0_4kind6Kind_tEbb(ptr noundef nonnull align 8 dereferenceable(1784) %34, i32 noundef 206, i1 noundef zeroext false, i1 noundef zeroext false)
  ret void
}